; Function Attrs: mustprogress uwtable
define void @_ZN5Ipopt18NoNLPScalingObject30DetermineScalingParametersImplENS_8SmartPtrIKNS_11VectorSpaceEEES4_S4_NS1_IKNS_11MatrixSpaceEEES7_NS1_IKNS_14SymMatrixSpaceEEERKNS_6MatrixERKNS_6VectorESD_SG_RdRNS1_ISE_EESJ_SJ_(ptr nonnull readnone align 8 captures(none) %0, ptr readnone captures(none) %1, ptr readnone captures(none) %2, ptr readnone captures(none) %3, ptr readnone captures(none) %4, ptr readnone captures(none) %5, ptr readnone captures(none) %6, ptr nonnull readnone align 8 captures(none) %7, ptr nonnull readnone align 8 captures(none) %8, ptr nonnull readnone align 8 captures(none) %9, ptr nonnull readnone align 8 captures(none) %10, ptr noundef nonnull writeonly align 8 captures(none) dereferenceable(8) initializes((0, 8)) %11, ptr noundef nonnull align 8 captures(none) dereferenceable(8) %12, ptr noundef nonnull align 8 captures(none) dereferenceable(8) %13, ptr noundef nonnull align 8 captures(none) dereferenceable(8) %14) unnamed_addr #7 align 2 {
  store double 1.000000e+00, ptr %11, align 8, !tbaa !68
  %16 = load ptr, ptr %12, align 8, !tbaa !20
  %.not.i.i.i = icmp eq ptr %16, null
  br i1 %.not.i.i.i, label %_ZN5Ipopt8SmartPtrINS_6VectorEEaSEPS1_.exit, label %17

17:                                               ; preds = %15
  %18 = getelementptr inbounds nuw i8, ptr %16, i64 8
  %19 = load i32, ptr %18, align 8, !tbaa !3
  %20 = add nsw i32 %19, -1
  store i32 %20, ptr %18, align 8, !tbaa !3
  %21 = icmp eq i32 %20, 0
  br i1 %21, label %22, label %_ZN5Ipopt8SmartPtrINS_6VectorEEaSEPS1_.exit

22:                                               ; preds = %17
  %23 = load ptr, ptr %16, align 8, !tbaa !8
  %24 = getelementptr inbounds nuw i8, ptr %23, i64 8
  %25 = load ptr, ptr %24, align 8
  tail call void %25(ptr noundef nonnull align 8 dereferenceable(205) %16) #17
  br label %_ZN5Ipopt8SmartPtrINS_6VectorEEaSEPS1_.exit

_ZN5Ipopt8SmartPtrINS_6VectorEEaSEPS1_.exit:      ; preds = %15, %17, %22
  store ptr null, ptr %12, align 8, !tbaa !20
  %26 = load ptr, ptr %13, align 8, !tbaa !20
  %.not.i.i.i4 = icmp eq ptr %26, null
  br i1 %.not.i.i.i4, label %_ZN5Ipopt8SmartPtrINS_6VectorEEaSEPS1_.exit5, label %27

27:                                               ; preds = %_ZN5Ipopt8SmartPtrINS_6VectorEEaSEPS1_.exit
  %28 = getelementptr inbounds nuw i8, ptr %26, i64 8
  %29 = load i32, ptr %28, align 8, !tbaa !3
  %30 = add nsw i32 %29, -1
  store i32 %30, ptr %28, align 8, !tbaa !3
  %31 = icmp eq i32 %30, 0
  br i1 %31, label %32, label %_ZN5Ipopt8SmartPtrINS_6VectorEEaSEPS1_.exit5

32:                                               ; preds = %27
  %33 = load ptr, ptr %26, align 8, !tbaa !8
  %34 = getelementptr inbounds nuw i8, ptr %33, i64 8
  %35 = load ptr, ptr %34, align 8
  tail call void %35(ptr noundef nonnull align 8 dereferenceable(205) %26) #17
  br label %_ZN5Ipopt8SmartPtrINS_6VectorEEaSEPS1_.exit5

_ZN5Ipopt8SmartPtrINS_6VectorEEaSEPS1_.exit5:     ; preds = %_ZN5Ipopt8SmartPtrINS_6VectorEEaSEPS1_.exit, %27, %32
  store ptr null, ptr %13, align 8, !tbaa !20
  %36 = load ptr, ptr %14, align 8, !tbaa !20
  %.not.i.i.i6 = icmp eq ptr %36, null
  br i1 %.not.i.i.i6, label %_ZN5Ipopt8SmartPtrINS_6VectorEEaSEPS1_.exit7, label %37

37:                                               ; preds = %_ZN5Ipopt8SmartPtrINS_6VectorEEaSEPS1_.exit5
  %38 = getelementptr inbounds nuw i8, ptr %36, i64 8
  %39 = load i32, ptr %38, align 8, !tbaa !3
  %40 = add nsw i32 %39, -1
  store i32 %40, ptr %38, align 8, !tbaa !3
  %41 = icmp eq i32 %40, 0
  br i1 %41, label %42, label %_ZN5Ipopt8SmartPtrINS_6VectorEEaSEPS1_.exit7

42:                                               ; preds = %37
  %43 = load ptr, ptr %36, align 8, !tbaa !8
  %44 = getelementptr inbounds nuw i8, ptr %43, i64 8
  %45 = load ptr, ptr %44, align 8
  tail call void %45(ptr noundef nonnull align 8 dereferenceable(205) %36) #17
  br label %_ZN5Ipopt8SmartPtrINS_6VectorEEaSEPS1_.exit7

_ZN5Ipopt8SmartPtrINS_6VectorEEaSEPS1_.exit7:     ; preds = %_ZN5Ipopt8SmartPtrINS_6VectorEEaSEPS1_.exit5, %37, %42
  store ptr null, ptr %14, align 8, !tbaa !20
  ret void
}